target datalayout = "e-m:e-p270:32:32-p271:32:32-p272:64:64-i64:64-i128:128-f80:128-n8:16:32:64-S128"
target triple = "x86_64-pc-linux-gnu"

%"class.lean::object_ref" = type { ptr }
%"class.lean::elab_environment" = type { %"class.lean::object_ref" }
%"class.lean::rb_tree" = type { %"struct.lean::rb_tree<lean::name, lean::name_quick_cmp>::node" }
%"struct.lean::rb_tree<lean::name, lean::name_quick_cmp>::node" = type { ptr }
%"class.lean::name_generator" = type <{ %"class.lean::name", i32, [4 x i8] }>
%"class.lean::name" = type { %"class.lean::object_ref" }
%"class.lean::local_ctx" = type { %"class.lean::object_ref" }
%"class.lean::environment" = type { %"class.lean::object_ref" }
%"struct.std::pair.4" = type { %"class.lean::elab_environment", %"class.lean::list_ref" }
%"class.lean::list_ref" = type { %"class.lean::object_ref" }
%"class.lean::specialize_fn" = type { %"class.lean::elab_environment", %"class.lean::type_checker::state", %"struct.lean::csimp_cfg", %"class.lean::local_ctx", %"class.lean::buffer.43", %"class.lean::name", %"class.lean::name", %"class.lean::name", i32, %"class.lean::rb_tree" }
%"class.lean::type_checker::state" = type { %"class.lean::environment", %"class.lean::name_generator", [2 x %"class.std::unordered_map"], %"class.std::unordered_map", %"class.std::unordered_map", %"class.lean::equiv_manager", %"class.std::unordered_set" }
%"class.std::unordered_map" = type { %"class.std::_Hashtable" }
%"class.std::_Hashtable" = type { ptr, i64, %"struct.std::__detail::_Hash_node_base", i64, %"struct.std::__detail::_Prime_rehash_policy", ptr }
%"struct.std::__detail::_Hash_node_base" = type { ptr }
%"struct.std::__detail::_Prime_rehash_policy" = type { float, i64 }
%"class.lean::equiv_manager" = type <{ %"class.std::vector", %"class.std::unordered_map.14", i8, [7 x i8] }>
%"class.std::vector" = type { %"struct.std::_Vector_base" }
%"struct.std::_Vector_base" = type { %"struct.std::_Vector_base<lean::equiv_manager::node, std::allocator<lean::equiv_manager::node>>::_Vector_impl" }
%"struct.std::_Vector_base<lean::equiv_manager::node, std::allocator<lean::equiv_manager::node>>::_Vector_impl" = type { %"struct.std::_Vector_base<lean::equiv_manager::node, std::allocator<lean::equiv_manager::node>>::_Vector_impl_data" }
%"struct.std::_Vector_base<lean::equiv_manager::node, std::allocator<lean::equiv_manager::node>>::_Vector_impl_data" = type { ptr, ptr, ptr }
%"class.std::unordered_map.14" = type { %"class.std::_Hashtable.15" }
%"class.std::_Hashtable.15" = type { ptr, i64, %"struct.std::__detail::_Hash_node_base", i64, %"struct.std::__detail::_Prime_rehash_policy", ptr }
%"class.std::unordered_set" = type { %"class.std::_Hashtable.28" }
%"class.std::_Hashtable.28" = type { ptr, i64, %"struct.std::__detail::_Hash_node_base", i64, %"struct.std::__detail::_Prime_rehash_policy", ptr }
%"struct.lean::csimp_cfg" = type { i8, i32, i32, i32 }
%"class.lean::buffer.43" = type { ptr, i64, i64, [128 x i8] }

; Function Attrs: mustprogress uwtable
define hidden void @_ZN4lean15specialize_coreERKNS_16elab_environmentERKNS_8pair_refINS_4nameENS_4exprEEERKNS_9csimp_cfgE(ptr dead_on_unwind noalias writable sret(%"struct.std::pair.4") align 8 %0, ptr noundef nonnull align 8 dereferenceable(8) %1, ptr noundef nonnull align 8 dereferenceable(8) %2, ptr noundef nonnull align 4 dereferenceable(16) %3) #0 personality ptr @__gxx_personality_v0 {
  %5 = alloca ptr, align 8
  %6 = alloca ptr, align 8
  %7 = alloca ptr, align 8
  %8 = alloca ptr, align 8
  %9 = alloca %"class.lean::specialize_fn", align 8
  %10 = alloca ptr, align 8
  %11 = alloca i32, align 4
  store ptr %0, ptr %5, align 8
  store ptr %1, ptr %6, align 8, !tbaa !3
  store ptr %2, ptr %7, align 8, !tbaa !26
  store ptr %3, ptr %8, align 8, !tbaa !91
  call void @llvm.lifetime.start.p0(i64 616, ptr %9) #17
  %12 = load ptr, ptr %6, align 8, !tbaa !3
  %13 = load ptr, ptr %8, align 8, !tbaa !91
  call void @_ZN4lean13specialize_fnC2ERKNS_16elab_environmentERKNS_9csimp_cfgE(ptr noundef nonnull align 8 dereferenceable(616) %9, ptr noundef nonnull align 8 dereferenceable(8) %12, ptr noundef nonnull align 4 dereferenceable(16) %13)
  %14 = load ptr, ptr %7, align 8, !tbaa !26
  invoke void @_ZN4lean13specialize_fnclERKNS_8pair_refINS_4nameENS_4exprEEE(ptr dead_on_unwind writable sret(%"struct.std::pair.4") align 8 %0, ptr noundef nonnull align 8 dereferenceable(616) %9, ptr noundef nonnull align 8 dereferenceable(8) %14)
          to label %15 unwind label %16

15:                                               ; preds = %4
  call void @_ZN4lean13specialize_fnD2Ev(ptr noundef nonnull align 8 dereferenceable(616) %9) #17
  call void @llvm.lifetime.end.p0(i64 616, ptr %9) #17
  ret void

16:                                               ; preds = %4
  %17 = landingpad { ptr, i32 }
          cleanup
  %18 = extractvalue { ptr, i32 } %17, 0
  store ptr %18, ptr %10, align 8
  %19 = extractvalue { ptr, i32 } %17, 1
  store i32 %19, ptr %11, align 4
  call void @_ZN4lean13specialize_fnD2Ev(ptr noundef nonnull align 8 dereferenceable(616) %9) #17
  call void @llvm.lifetime.end.p0(i64 616, ptr %9) #17
  br label %20

20:                                               ; preds = %16
  %21 = load ptr, ptr %10, align 8
  %22 = load i32, ptr %11, align 4
  %23 = insertvalue { ptr, i32 } poison, ptr %21, 0
  %24 = insertvalue { ptr, i32 } %23, i32 %22, 1
  resume { ptr, i32 } %24
}