; Function Attrs: mustprogress uwtable
define hidden void @_ZN4lean15specialize_coreERKNS_16elab_environmentERKNS_8pair_refINS_4nameENS_4exprEEERKNS_9csimp_cfgE(ptr dead_on_unwind noalias writable sret(%"struct.std::pair.4") align 8 %0, ptr noundef nonnull align 8 dereferenceable(8) %1, ptr noundef nonnull align 8 dereferenceable(8) %2, ptr noundef nonnull align 4 dereferenceable(16) %3) local_unnamed_addr #0 personality ptr @__gxx_personality_v0 {
  %5 = alloca %"class.lean::specialize_fn", align 8
  call void @llvm.lifetime.start.p0(i64 616, ptr nonnull %5) #20
  call void @_ZN4lean13specialize_fnC2ERKNS_16elab_environmentERKNS_9csimp_cfgE(ptr noundef nonnull align 8 dereferenceable(616) %5, ptr noundef nonnull align 8 dereferenceable(8) %1, ptr noundef nonnull align 4 dereferenceable(16) %3)
  invoke void @_ZN4lean13specialize_fnclERKNS_8pair_refINS_4nameENS_4exprEEE(ptr dead_on_unwind writable sret(%"struct.std::pair.4") align 8 %0, ptr noundef nonnull align 8 dereferenceable(616) %5, ptr noundef nonnull align 8 dereferenceable(8) %2)
          to label %6 unwind label %7

6:                                                ; preds = %4
  call void @_ZN4lean13specialize_fnD2Ev(ptr noundef nonnull align 8 dereferenceable(616) %5) #20
  call void @llvm.lifetime.end.p0(i64 616, ptr nonnull %5) #20
  ret void

7:                                                ; preds = %4
  %8 = landingpad { ptr, i32 }
          cleanup
  call void @_ZN4lean13specialize_fnD2Ev(ptr noundef nonnull align 8 dereferenceable(616) %5) #20
  call void @llvm.lifetime.end.p0(i64 616, ptr nonnull %5) #20
  resume { ptr, i32 } %8
}